; Function Attrs: mustprogress uwtable
define void @capture_info_ui_create(ptr noundef %0, ptr noundef %1) local_unnamed_addr #0 personality ptr @__gxx_personality_v0 {
  %.not = icmp eq ptr %0, null
  br i1 %.not, label %12, label %3

3:                                                ; preds = %2
  %4 = load ptr, ptr %0, align 8
  %5 = icmp ne ptr %4, null
  %6 = icmp ne ptr %1, null
  %or.cond = and i1 %6, %5
  br i1 %or.cond, label %7, label %12

7:                                                ; preds = %3
  %8 = tail call noundef ptr @_ZNK11QMetaObject4castEPK7QObject(ptr noundef nonnull align 8 dereferenceable(56) @_ZN11QMainWindow16staticMetaObjectE, ptr noundef nonnull %4)
  %.not16 = icmp eq ptr %8, null
  br i1 %.not16, label %12, label %9

9:                                                ; preds = %7
  %10 = tail call noalias noundef nonnull dereferenceable(112) ptr @_Znwm(i64 noundef 112) #20
  invoke void @_ZN17CaptureInfoDialogC1EP13_capture_infoP16_capture_sessionP7QWidget(ptr noundef nonnull align 8 dereferenceable(112) %10, ptr noundef nonnull %0, ptr noundef nonnull %1, ptr noundef nonnull %8)
          to label %11 unwind label %13

11:                                               ; preds = %9
  store ptr %10, ptr %0, align 8
  tail call void @_ZN7QWidget4showEv(ptr noundef nonnull align 8 dereferenceable(40) %10)
  br label %12

12:                                               ; preds = %7, %2, %3, %11
  ret void

13:                                               ; preds = %9
  %14 = landingpad { ptr, i32 }
          cleanup
  tail call void @_ZdlPv(ptr noundef nonnull %10) #21
  resume { ptr, i32 } %14
}